target datalayout = "e-m:e-p270:32:32-p271:32:32-p272:64:64-i64:64-i128:128-f80:128-n8:16:32:64-S128"
target triple = "x86_64-pc-linux-gnu"

%"class.cv::tinyxml2::StrPair" = type { i32, ptr, ptr }
%"class.cv::tinyxml2::XMLNode" = type { ptr, ptr, ptr, %"class.cv::tinyxml2::StrPair", ptr, ptr, ptr, ptr, ptr }
%"class.cv::tinyxml2::XMLAttribute" = type { ptr, %"class.cv::tinyxml2::StrPair", %"class.cv::tinyxml2::StrPair", ptr, ptr }
%"class.cv::tinyxml2::XMLPrinter" = type { %"class.cv::tinyxml2::XMLVisitor", i8, %"class.cv::tinyxml2::DynArray.6", i8, ptr, i32, i32, i8, i8, [64 x i8], [64 x i8], [6 x i8], %"class.cv::tinyxml2::DynArray.7" }
%"class.cv::tinyxml2::XMLVisitor" = type { ptr }
%"class.cv::tinyxml2::DynArray.6" = type { ptr, [10 x ptr], i32, i32 }
%"class.cv::tinyxml2::DynArray.7" = type <{ ptr, [20 x i8], i32, i32, [4 x i8] }>

@.str.28 = private unnamed_addr constant [6 x i8] c" %s=\22\00", align 1
@.str.29 = private unnamed_addr constant [2 x i8] c"\22\00", align 1

; Function Attrs: mustprogress uwtable
define hidden noundef ptr @_ZNK2cv8tinyxml27XMLNode5ValueEv(ptr noundef nonnull align 8 dereferenceable(88) %0) #3 align 2 {
  %2 = alloca ptr, align 8
  store ptr %0, ptr %2, align 8, !tbaa !55
  %3 = load ptr, ptr %2, align 8
  %4 = getelementptr inbounds nuw %"class.cv::tinyxml2::XMLNode", ptr %3, i32 0, i32 3
  %5 = call noundef ptr @_ZN2cv8tinyxml27StrPair6GetStrEv(ptr noundef nonnull align 8 dereferenceable(24) %4)
  ret ptr %5
}

; Function Attrs: mustprogress nounwind uwtable
define linkonce_odr hidden noundef ptr @_ZNK2cv8tinyxml212XMLAttribute4NextEv(ptr noundef nonnull align 8 dereferenceable(72) %0) #0 comdat align 2 {
  %2 = alloca ptr, align 8
  store ptr %0, ptr %2, align 8, !tbaa !151
  %3 = load ptr, ptr %2, align 8
  %4 = getelementptr inbounds nuw %"class.cv::tinyxml2::XMLAttribute", ptr %3, i32 0, i32 3
  %5 = load ptr, ptr %4, align 8, !tbaa !153
  ret ptr %5
}

; Function Attrs: mustprogress uwtable
define hidden void @_ZN2cv8tinyxml210XMLPrinter13PushAttributeEPKcS3_(ptr noundef nonnull align 8 dereferenceable(312) %0, ptr noundef %1, ptr noundef %2) #3 align 2 {
  %4 = alloca ptr, align 8
  %5 = alloca ptr, align 8
  %6 = alloca ptr, align 8
  store ptr %0, ptr %4, align 8, !tbaa !185
  store ptr %1, ptr %5, align 8, !tbaa !14
  store ptr %2, ptr %6, align 8, !tbaa !14
  %7 = load ptr, ptr %4, align 8
  %8 = load ptr, ptr %5, align 8, !tbaa !14
  call void (ptr, ptr, ...) @_ZN2cv8tinyxml210XMLPrinter5PrintEPKcz(ptr noundef nonnull align 8 dereferenceable(312) %7, ptr noundef @.str.28, ptr noundef %8)
  %9 = load ptr, ptr %6, align 8, !tbaa !14
  call void @_ZN2cv8tinyxml210XMLPrinter11PrintStringEPKcb(ptr noundef nonnull align 8 dereferenceable(312) %7, ptr noundef %9, i1 noundef zeroext false)
  call void (ptr, ptr, ...) @_ZN2cv8tinyxml210XMLPrinter5PrintEPKcz(ptr noundef nonnull align 8 dereferenceable(312) %7, ptr noundef @.str.29)
  ret void
}

; Function Attrs: mustprogress uwtable
define hidden noundef ptr @_ZNK2cv8tinyxml212XMLAttribute5ValueEv(ptr noundef nonnull align 8 dereferenceable(72) %0) #3 align 2 {
  %2 = alloca ptr, align 8
  store ptr %0, ptr %2, align 8, !tbaa !151
  %3 = load ptr, ptr %2, align 8
  %4 = getelementptr inbounds nuw %"class.cv::tinyxml2::XMLAttribute", ptr %3, i32 0, i32 2
  %5 = call noundef ptr @_ZN2cv8tinyxml27StrPair6GetStrEv(ptr noundef nonnull align 8 dereferenceable(24) %4)
  ret ptr %5
}

; Function Attrs: mustprogress uwtable
define hidden noundef ptr @_ZNK2cv8tinyxml212XMLAttribute4NameEv(ptr noundef nonnull align 8 dereferenceable(72) %0) #3 align 2 {
  %2 = alloca ptr, align 8
  store ptr %0, ptr %2, align 8, !tbaa !151
  %3 = load ptr, ptr %2, align 8
  %4 = getelementptr inbounds nuw %"class.cv::tinyxml2::XMLAttribute", ptr %3, i32 0, i32 1
  %5 = call noundef ptr @_ZN2cv8tinyxml27StrPair6GetStrEv(ptr noundef nonnull align 8 dereferenceable(24) %4)
  ret ptr %5
}

; Function Attrs: mustprogress uwtable
define linkonce_odr hidden noundef ptr @_ZNK2cv8tinyxml210XMLElement4NameEv(ptr noundef nonnull align 8 dereferenceable(104) %0) #3 comdat align 2 {
  %2 = alloca ptr, align 8
  store ptr %0, ptr %2, align 8, !tbaa !121
  %3 = load ptr, ptr %2, align 8
  %4 = call noundef ptr @_ZNK2cv8tinyxml27XMLNode5ValueEv(ptr noundef nonnull align 8 dereferenceable(88) %3)
  ret ptr %4
}

; Function Attrs: mustprogress nounwind uwtable
define linkonce_odr hidden noundef ptr @_ZNK2cv8tinyxml27XMLNode6ParentEv(ptr noundef nonnull align 8 dereferenceable(88) %0) #0 comdat align 2 {
  %2 = alloca ptr, align 8
  store ptr %0, ptr %2, align 8, !tbaa !55
  %3 = load ptr, ptr %2, align 8
  %4 = getelementptr inbounds nuw %"class.cv::tinyxml2::XMLNode", ptr %3, i32 0, i32 2
  %5 = load ptr, ptr %4, align 8, !tbaa !116
  ret ptr %5
}

; Function Attrs: mustprogress uwtable
define hidden noundef zeroext i1 @_ZN2cv8tinyxml210XMLPrinter10VisitEnterERKNS0_10XMLElementEPKNS0_12XMLAttributeE(ptr noundef nonnull align 8 dereferenceable(312) %0, ptr noundef nonnull align 8 dereferenceable(104) %1, ptr noundef %2) unnamed_addr #3 align 2 {
  %4 = alloca ptr, align 8
  %5 = alloca ptr, align 8
  %6 = alloca ptr, align 8
  %7 = alloca ptr, align 8
  %8 = alloca i8, align 1
  store ptr %0, ptr %4, align 8, !tbaa !185
  store ptr %1, ptr %5, align 8, !tbaa !121
  store ptr %2, ptr %6, align 8, !tbaa !151
  %9 = load ptr, ptr %4, align 8
  call void @llvm.lifetime.start.p0(i64 8, ptr %7) #17
  %10 = load ptr, ptr %5, align 8, !tbaa !121
  %11 = call noundef ptr @_ZNK2cv8tinyxml27XMLNode6ParentEv(ptr noundef nonnull align 8 dereferenceable(88) %10)
  %12 = load ptr, ptr %11, align 8, !tbaa !92
  %13 = getelementptr inbounds ptr, ptr %12, i64 6
  %14 = load ptr, ptr %13, align 8
  %15 = call noundef ptr %14(ptr noundef nonnull align 8 dereferenceable(88) %11)
  store ptr %15, ptr %7, align 8, !tbaa !121
  call void @llvm.lifetime.start.p0(i64 1, ptr %8) #17
  %16 = load ptr, ptr %7, align 8, !tbaa !121
  %17 = icmp ne ptr %16, null
  br i1 %17, label %18, label %24

18:                                               ; preds = %3
  %19 = load ptr, ptr %7, align 8, !tbaa !121
  %20 = load ptr, ptr %9, align 8, !tbaa !92
  %21 = getelementptr inbounds ptr, ptr %20, i64 11
  %22 = load ptr, ptr %21, align 8
  %23 = call noundef zeroext i1 %22(ptr noundef nonnull align 8 dereferenceable(312) %9, ptr noundef nonnull align 8 dereferenceable(104) %19)
  br label %28

24:                                               ; preds = %3
  %25 = getelementptr inbounds nuw %"class.cv::tinyxml2::XMLPrinter", ptr %9, i32 0, i32 8
  %26 = load i8, ptr %25, align 1, !tbaa !198, !range !39, !noundef !40
  %27 = trunc i8 %26 to i1
  br label %28

28:                                               ; preds = %24, %18
  %29 = phi i1 [ %23, %18 ], [ %27, %24 ]
  %30 = zext i1 %29 to i8
  store i8 %30, ptr %8, align 1, !tbaa !37
  %31 = load ptr, ptr %5, align 8, !tbaa !121
  %32 = call noundef ptr @_ZNK2cv8tinyxml210XMLElement4NameEv(ptr noundef nonnull align 8 dereferenceable(104) %31)
  %33 = load i8, ptr %8, align 1, !tbaa !37, !range !39, !noundef !40
  %34 = trunc i8 %33 to i1
  call void @_ZN2cv8tinyxml210XMLPrinter11OpenElementEPKcb(ptr noundef nonnull align 8 dereferenceable(312) %9, ptr noundef %32, i1 noundef zeroext %34)
  br label %35

35:                                               ; preds = %38, %28
  %36 = load ptr, ptr %6, align 8, !tbaa !151
  %37 = icmp ne ptr %36, null
  br i1 %37, label %38, label %45

38:                                               ; preds = %35
  %39 = load ptr, ptr %6, align 8, !tbaa !151
  %40 = call noundef ptr @_ZNK2cv8tinyxml212XMLAttribute4NameEv(ptr noundef nonnull align 8 dereferenceable(72) %39)
  %41 = load ptr, ptr %6, align 8, !tbaa !151
  %42 = call noundef ptr @_ZNK2cv8tinyxml212XMLAttribute5ValueEv(ptr noundef nonnull align 8 dereferenceable(72) %41)
  call void @_ZN2cv8tinyxml210XMLPrinter13PushAttributeEPKcS3_(ptr noundef nonnull align 8 dereferenceable(312) %9, ptr noundef %40, ptr noundef %42)
  %43 = load ptr, ptr %6, align 8, !tbaa !151
  %44 = call noundef ptr @_ZNK2cv8tinyxml212XMLAttribute4NextEv(ptr noundef nonnull align 8 dereferenceable(72) %43)
  store ptr %44, ptr %6, align 8, !tbaa !151
  br label %35, !llvm.loop !215

45:                                               ; preds = %35
  call void @llvm.lifetime.end.p0(i64 1, ptr %8) #17
  call void @llvm.lifetime.end.p0(i64 8, ptr %7) #17
  ret i1 true
}