; Function Attrs: mustprogress uwtable
define hidden noundef zeroext i1 @_ZN2cv8tinyxml210XMLPrinter10VisitEnterERKNS0_10XMLElementEPKNS0_12XMLAttributeE(ptr noundef nonnull align 8 dereferenceable(312) %0, ptr noundef nonnull align 8 captures(none) dereferenceable(104) %1, ptr noundef %2) unnamed_addr #4 align 2 {
  %4 = getelementptr inbounds nuw i8, ptr %1, i64 16
  %5 = load ptr, ptr %4, align 8, !tbaa !38
  %6 = load ptr, ptr %5, align 8, !tbaa !39
  %7 = getelementptr inbounds nuw i8, ptr %6, i64 48
  %8 = load ptr, ptr %7, align 8
  %9 = tail call noundef ptr %8(ptr noundef nonnull align 8 dereferenceable(88) %5)
  %.not = icmp eq ptr %9, null
  br i1 %.not, label %15, label %10

10:                                               ; preds = %3
  %11 = load ptr, ptr %0, align 8, !tbaa !39
  %12 = getelementptr inbounds nuw i8, ptr %11, i64 88
  %13 = load ptr, ptr %12, align 8
  %14 = tail call noundef zeroext i1 %13(ptr noundef nonnull align 8 dereferenceable(312) %0, ptr noundef nonnull align 8 dereferenceable(104) %9)
  br label %19

15:                                               ; preds = %3
  %16 = getelementptr inbounds nuw i8, ptr %0, i64 137
  %17 = load i8, ptr %16, align 1, !tbaa !168, !range !119, !noundef !120
  %18 = trunc nuw i8 %17 to i1
  br label %19

19:                                               ; preds = %15, %10
  %20 = phi i1 [ %14, %10 ], [ %18, %15 ]
  %21 = getelementptr inbounds nuw i8, ptr %1, i64 24
  %22 = tail call noundef ptr @_ZN2cv8tinyxml27StrPair6GetStrEv(ptr noundef nonnull align 8 dereferenceable(24) %21)
  tail call void @_ZN2cv8tinyxml210XMLPrinter11OpenElementEPKcb(ptr noundef nonnull align 8 dereferenceable(312) %0, ptr noundef %22, i1 noundef zeroext %20)
  %.not1011 = icmp eq ptr %2, null
  br i1 %.not1011, label %._crit_edge, label %.lr.ph

.lr.ph:                                           ; preds = %19, %.lr.ph
  %.012 = phi ptr [ %28, %.lr.ph ], [ %2, %19 ]
  %23 = getelementptr inbounds nuw i8, ptr %.012, i64 8
  %24 = tail call noundef ptr @_ZN2cv8tinyxml27StrPair6GetStrEv(ptr noundef nonnull align 8 dereferenceable(24) %23)
  %25 = getelementptr inbounds nuw i8, ptr %.012, i64 32
  %26 = tail call noundef ptr @_ZN2cv8tinyxml27StrPair6GetStrEv(ptr noundef nonnull align 8 dereferenceable(24) %25)
  tail call void (ptr, ptr, ...) @_ZN2cv8tinyxml210XMLPrinter5PrintEPKcz(ptr noundef nonnull align 8 dereferenceable(312) %0, ptr noundef nonnull @.str.28, ptr noundef %24)
  tail call void @_ZN2cv8tinyxml210XMLPrinter11PrintStringEPKcb(ptr noundef nonnull align 8 dereferenceable(312) %0, ptr noundef %26, i1 noundef zeroext false)
  tail call void (ptr, ptr, ...) @_ZN2cv8tinyxml210XMLPrinter5PrintEPKcz(ptr noundef nonnull align 8 dereferenceable(312) %0, ptr noundef nonnull @.str.29)
  %27 = getelementptr inbounds nuw i8, ptr %.012, i64 56
  %28 = load ptr, ptr %27, align 8, !tbaa !123
  %.not10 = icmp eq ptr %28, null
  br i1 %.not10, label %._crit_edge, label %.lr.ph, !llvm.loop !178

._crit_edge:                                      ; preds = %.lr.ph, %19
  ret i1 true
}